; Function Attrs: nounwind uwtable
define internal ptr @fire_event_py_throw(ptr readnone captures(none) %0, ptr noundef %1) #0 {
  %3 = alloca ptr, align 8
  %4 = alloca i32, align 4
  %5 = alloca ptr, align 8
  call void @llvm.lifetime.start.p0(i64 8, ptr nonnull %3) #4
  call void @llvm.lifetime.start.p0(i64 4, ptr nonnull %4) #4
  call void @llvm.lifetime.start.p0(i64 8, ptr nonnull %5) #4
  %6 = call i32 (ptr, ptr, ...) @PyArg_ParseTuple(ptr noundef %1, ptr noundef nonnull @.str.35, ptr noundef nonnull %3, ptr noundef nonnull %4, ptr noundef nonnull %5) #4
  %.not = icmp eq i32 %6, 0
  br i1 %.not, label %55, label %7

7:                                                ; preds = %2
  %8 = load ptr, ptr %5, align 8, !tbaa !32
  %9 = icmp eq ptr %8, @_Py_NoneStruct
  br i1 %9, label %10, label %11

10:                                               ; preds = %7
  store ptr null, ptr %5, align 8, !tbaa !32
  br label %11

11:                                               ; preds = %10, %7
  %12 = phi ptr [ null, %10 ], [ %8, %7 ]
  %13 = load ptr, ptr %3, align 8, !tbaa !32
  %14 = load i32, ptr %4, align 4, !tbaa !29
  %15 = getelementptr i8, ptr %13, i64 8
  %.val14.i = load ptr, ptr %15, align 8, !tbaa !14
  %.not.i = icmp eq ptr %.val14.i, @PyCodeLike_Type
  br i1 %.not.i, label %20, label %setup_fire.exit.thread

setup_fire.exit.thread:                           ; preds = %11
  %16 = load ptr, ptr @PyExc_TypeError, align 8, !tbaa !32
  %17 = getelementptr inbounds nuw i8, ptr %.val14.i, i64 24
  %18 = load ptr, ptr %17, align 8, !tbaa !33
  %19 = call ptr (ptr, ptr, ...) @PyErr_Format(ptr noundef %16, ptr noundef nonnull @.str.32, ptr noundef %18) #4
  br label %55

20:                                               ; preds = %11
  %21 = icmp sgt i32 %14, -1
  br i1 %21, label %22, label %26

22:                                               ; preds = %20
  %23 = getelementptr inbounds nuw i8, ptr %13, i64 32
  %24 = load i32, ptr %23, align 8, !tbaa !24
  %25 = icmp slt i32 %14, %24
  br i1 %25, label %27, label %26

26:                                               ; preds = %22, %20
  call void @__assert_fail(ptr noundef nonnull @.str.33, ptr noundef nonnull @.str.30, i32 noundef 120, ptr noundef nonnull @__PRETTY_FUNCTION__.setup_fire) #5
  unreachable

27:                                               ; preds = %22
  %28 = getelementptr inbounds nuw i8, ptr %13, i64 16
  %29 = load ptr, ptr %28, align 8, !tbaa !6
  %30 = zext nneg i32 %14 to i64
  %31 = getelementptr %struct._PyMonitoringState, ptr %29, i64 %30
  %.not13.i = icmp eq ptr %12, null
  br i1 %.not13.i, label %setup_fire.exit, label %32

32:                                               ; preds = %27
  %33 = load i32, ptr %12, align 8, !tbaa !3
  %34 = icmp slt i32 %33, 0
  br i1 %34, label %_Py_NewRef.exit.i, label %35

35:                                               ; preds = %32
  %36 = add nuw i32 %33, 1
  store i32 %36, ptr %12, align 8, !tbaa !3
  br label %_Py_NewRef.exit.i

_Py_NewRef.exit.i:                                ; preds = %35, %32
  call void @PyErr_SetRaisedException(ptr noundef nonnull %12) #4
  br label %setup_fire.exit

setup_fire.exit:                                  ; preds = %27, %_Py_NewRef.exit.i
  %37 = icmp eq ptr %31, null
  br i1 %37, label %55, label %38

38:                                               ; preds = %setup_fire.exit
  %39 = load i8, ptr %31, align 1, !tbaa !27
  %.not.i11 = icmp eq i8 %39, 0
  br i1 %.not.i11, label %PyMonitoring_FirePyThrowEvent.exit, label %40

40:                                               ; preds = %38
  %41 = load i32, ptr %4, align 4, !tbaa !29
  %42 = load ptr, ptr %3, align 8, !tbaa !32
  %43 = call i32 @_PyMonitoring_FirePyThrowEvent(ptr noundef nonnull %31, ptr noundef %42, i32 noundef %41) #4
  br label %PyMonitoring_FirePyThrowEvent.exit

PyMonitoring_FirePyThrowEvent.exit:               ; preds = %38, %40
  %.0.i12 = phi i32 [ %43, %40 ], [ 0, %38 ]
  %44 = load ptr, ptr %5, align 8, !tbaa !32
  %45 = call fastcc i32 @teardown_fire(i32 noundef %.0.i12, ptr noundef %31, ptr noundef %44)
  %46 = icmp eq i32 %45, -1
  %47 = call ptr @PyErr_Occurred() #4
  %.not10 = icmp eq ptr %47, null
  br i1 %46, label %48, label %50

48:                                               ; preds = %PyMonitoring_FirePyThrowEvent.exit
  br i1 %.not10, label %49, label %55

49:                                               ; preds = %48
  call void @__assert_fail(ptr noundef nonnull @.str.29, ptr noundef nonnull @.str.30, i32 noundef 339, ptr noundef nonnull @__PRETTY_FUNCTION__.fire_event_py_throw) #5
  unreachable

50:                                               ; preds = %PyMonitoring_FirePyThrowEvent.exit
  br i1 %.not10, label %52, label %51

51:                                               ; preds = %50
  call void @__assert_fail(ptr noundef nonnull @.str.31, ptr noundef nonnull @.str.30, i32 noundef 339, ptr noundef nonnull @__PRETTY_FUNCTION__.fire_event_py_throw) #5
  unreachable

52:                                               ; preds = %50
  %53 = zext nneg i32 %45 to i64
  %54 = call ptr @PyLong_FromLong(i64 noundef %53) #4
  br label %55

55:                                               ; preds = %setup_fire.exit.thread, %setup_fire.exit, %48, %52, %2
  %.0 = phi ptr [ null, %2 ], [ null, %setup_fire.exit ], [ %54, %52 ], [ null, %48 ], [ null, %setup_fire.exit.thread ]
  call void @llvm.lifetime.end.p0(i64 8, ptr nonnull %5) #4
  call void @llvm.lifetime.end.p0(i64 4, ptr nonnull %4) #4
  call void @llvm.lifetime.end.p0(i64 8, ptr nonnull %3) #4
  ret ptr %.0
}